target datalayout = "e-m:e-p270:32:32-p271:32:32-p272:64:64-i64:64-i128:128-f80:128-n8:16:32:64-S128"
target triple = "x86_64-pc-linux-gnu"

%struct.Ssw_Pars_t_ = type { i32, i32, i32, i32, i32, i32, i32, i32, i32, i32, i32, i32, i32, i32, i32, i32, i32, i32, i32, i32, i32, i32, i32, i32, i32, i32, i32, i32, i32, i32, i32, i32, i32, i32, i32, i32, i32, i32, i32, i32, i32, i32, ptr, ptr }

; Function Attrs: nounwind uwtable
define ptr @Cec_GiaScorrOld(ptr noundef %0) #0 {
  %2 = alloca ptr, align 8
  %3 = alloca %struct.Ssw_Pars_t_, align 8
  %4 = alloca ptr, align 8
  %5 = alloca ptr, align 8
  %6 = alloca ptr, align 8
  %7 = alloca ptr, align 8
  store ptr %0, ptr %2, align 8, !tbaa !3
  call void @llvm.lifetime.start.p0(i64 184, ptr %3) #9
  call void @llvm.lifetime.start.p0(i64 8, ptr %4) #9
  store ptr %3, ptr %4, align 8, !tbaa !64
  %8 = load ptr, ptr %4, align 8, !tbaa !64
  call void @Ssw_ManSetDefaultParams(ptr noundef %8)
  call void @llvm.lifetime.start.p0(i64 8, ptr %5) #9
  %9 = load ptr, ptr %2, align 8, !tbaa !3
  %10 = call ptr @Gia_ManToAigSimple(ptr noundef %9)
  store ptr %10, ptr %5, align 8, !tbaa !24
  call void @llvm.lifetime.start.p0(i64 8, ptr %6) #9
  %11 = load ptr, ptr %5, align 8, !tbaa !24
  %12 = load ptr, ptr %4, align 8, !tbaa !64
  %13 = call ptr @Ssw_SignalCorrespondence(ptr noundef %11, ptr noundef %12)
  store ptr %13, ptr %6, align 8, !tbaa !24
  call void @llvm.lifetime.start.p0(i64 8, ptr %7) #9
  %14 = load ptr, ptr %6, align 8, !tbaa !24
  %15 = call ptr @Gia_ManFromAigSimple(ptr noundef %14)
  store ptr %15, ptr %7, align 8, !tbaa !3
  %16 = load ptr, ptr %6, align 8, !tbaa !24
  call void @Aig_ManStop(ptr noundef %16)
  %17 = load ptr, ptr %5, align 8, !tbaa !24
  call void @Aig_ManStop(ptr noundef %17)
  %18 = load ptr, ptr %7, align 8, !tbaa !3
  call void @llvm.lifetime.end.p0(i64 8, ptr %7) #9
  call void @llvm.lifetime.end.p0(i64 8, ptr %6) #9
  call void @llvm.lifetime.end.p0(i64 8, ptr %5) #9
  call void @llvm.lifetime.end.p0(i64 8, ptr %4) #9
  call void @llvm.lifetime.end.p0(i64 184, ptr %3) #9
  ret ptr %18
}