; Function Attrs: nounwind uwtable
define ptr @Cec_GiaScorrOld(ptr noundef %0) local_unnamed_addr #0 {
  %2 = alloca %struct.Ssw_Pars_t_, align 8
  call void @llvm.lifetime.start.p0(i64 184, ptr nonnull %2) #13
  call void @Ssw_ManSetDefaultParams(ptr noundef nonnull %2) #13
  %3 = call ptr @Gia_ManToAigSimple(ptr noundef %0) #13
  %4 = call ptr @Ssw_SignalCorrespondence(ptr noundef %3, ptr noundef nonnull %2) #13
  %5 = call ptr @Gia_ManFromAigSimple(ptr noundef %4) #13
  call void @Aig_ManStop(ptr noundef %4) #13
  call void @Aig_ManStop(ptr noundef %3) #13
  call void @llvm.lifetime.end.p0(i64 184, ptr nonnull %2) #13
  ret ptr %5
}